target datalayout = "e-m:e-p270:32:32-p271:32:32-p272:64:64-i64:64-i128:128-f80:128-n8:16:32:64-S128"
target triple = "x86_64-pc-linux-gnu"

%struct._zend_array = type { %struct._zend_refcounted_h, %union.anon.0, i32, %union.anon.1, i32, i32, i32, i32, i64, ptr }
%struct._zend_refcounted_h = type { i32, %union.anon }
%union.anon = type { i32 }
%union.anon.0 = type { i32 }
%union.anon.1 = type { ptr }

@.str = private unnamed_addr constant [64 x i8] c"Possible integer overflow in memory allocation (%u * %zu + %zu)\00", align 1

; Function Attrs: nounwind uwtable
define void @zend_hash_packed_grow(ptr noundef %0) #0 {
  %2 = alloca i32, align 4
  %3 = alloca ptr, align 8
  %4 = alloca i32, align 4
  store ptr %0, ptr %3, align 8
  %5 = load ptr, ptr %3, align 8
  %6 = getelementptr inbounds %struct._zend_array, ptr %5, i32 0, i32 6
  %7 = load i32, ptr %6, align 8
  %8 = icmp uge i32 %7, 1073741824
  br i1 %8, label %9, label %14

9:                                                ; preds = %1
  %10 = load ptr, ptr %3, align 8
  %11 = getelementptr inbounds %struct._zend_array, ptr %10, i32 0, i32 6
  %12 = load i32, ptr %11, align 8
  %13 = mul i32 %12, 2
  call void (i32, ptr, ...) @zend_error_noreturn(i32 noundef 1, ptr noundef @.str, i32 noundef %13, i64 noundef 32, i64 noundef 32) #18
  unreachable

14:                                               ; preds = %1
  %15 = load ptr, ptr %3, align 8
  %16 = getelementptr inbounds %struct._zend_array, ptr %15, i32 0, i32 6
  %17 = load i32, ptr %16, align 8
  %18 = mul i32 %17, 2
  store i32 %18, ptr %4, align 4
  br label %19

19:                                               ; preds = %14
  %20 = load ptr, ptr %3, align 8
  %21 = getelementptr inbounds %struct._zend_array, ptr %20, i32 0, i32 0
  %22 = getelementptr inbounds %struct._zend_refcounted_h, ptr %21, i32 0, i32 1
  %23 = load i32, ptr %22, align 4
  store i32 %23, ptr %2, align 4
  %24 = load i32, ptr %2, align 4
  %25 = and i32 %24, 1008
  %26 = and i32 %25, 128
  %27 = icmp ne i32 %26, 0
  br i1 %27, label %28, label %45

28:                                               ; preds = %19
  %29 = load ptr, ptr %3, align 8
  %30 = getelementptr inbounds %struct._zend_array, ptr %29, i32 0, i32 3
  %31 = load ptr, ptr %30, align 8
  %32 = load ptr, ptr %3, align 8
  %33 = getelementptr inbounds %struct._zend_array, ptr %32, i32 0, i32 2
  %34 = load i32, ptr %33, align 4
  %35 = sub i32 0, %34
  %36 = zext i32 %35 to i64
  %37 = mul i64 %36, 4
  %38 = sub i64 0, %37
  %39 = getelementptr inbounds i8, ptr %31, i64 %38
  %40 = load i32, ptr %4, align 4
  %41 = zext i32 %40 to i64
  %42 = mul i64 %41, 16
  %43 = add i64 %42, 8
  %44 = call ptr @__zend_realloc(ptr noundef %39, i64 noundef %43) #19
  br label %74

45:                                               ; preds = %19
  %46 = load ptr, ptr %3, align 8
  %47 = getelementptr inbounds %struct._zend_array, ptr %46, i32 0, i32 3
  %48 = load ptr, ptr %47, align 8
  %49 = load ptr, ptr %3, align 8
  %50 = getelementptr inbounds %struct._zend_array, ptr %49, i32 0, i32 2
  %51 = load i32, ptr %50, align 4
  %52 = sub i32 0, %51
  %53 = zext i32 %52 to i64
  %54 = mul i64 %53, 4
  %55 = sub i64 0, %54
  %56 = getelementptr inbounds i8, ptr %48, i64 %55
  %57 = load i32, ptr %4, align 4
  %58 = zext i32 %57 to i64
  %59 = mul i64 %58, 16
  %60 = add i64 %59, 8
  %61 = load ptr, ptr %3, align 8
  %62 = getelementptr inbounds %struct._zend_array, ptr %61, i32 0, i32 2
  %63 = load i32, ptr %62, align 4
  %64 = sub i32 0, %63
  %65 = zext i32 %64 to i64
  %66 = mul i64 %65, 4
  %67 = load ptr, ptr %3, align 8
  %68 = getelementptr inbounds %struct._zend_array, ptr %67, i32 0, i32 4
  %69 = load i32, ptr %68, align 8
  %70 = zext i32 %69 to i64
  %71 = mul i64 %70, 16
  %72 = add i64 %66, %71
  %73 = call ptr @_erealloc2(ptr noundef %56, i64 noundef %60, i64 noundef %72) #19
  br label %74

74:                                               ; preds = %45, %28
  %75 = phi ptr [ %44, %28 ], [ %73, %45 ]
  %76 = load ptr, ptr %3, align 8
  %77 = getelementptr inbounds %struct._zend_array, ptr %76, i32 0, i32 2
  %78 = load i32, ptr %77, align 4
  %79 = sub i32 0, %78
  %80 = zext i32 %79 to i64
  %81 = mul i64 %80, 4
  %82 = getelementptr inbounds i8, ptr %75, i64 %81
  %83 = load ptr, ptr %3, align 8
  %84 = getelementptr inbounds %struct._zend_array, ptr %83, i32 0, i32 3
  store ptr %82, ptr %84, align 8
  br label %85

85:                                               ; preds = %74
  %86 = load i32, ptr %4, align 4
  %87 = load ptr, ptr %3, align 8
  %88 = getelementptr inbounds %struct._zend_array, ptr %87, i32 0, i32 6
  store i32 %86, ptr %88, align 8
  ret void
}