; Function Attrs: nounwind uwtable
define void @zend_hash_packed_grow(ptr nocapture noundef %0) local_unnamed_addr #0 {
  %2 = getelementptr inbounds i8, ptr %0, i64 32
  %3 = load i32, ptr %2, align 8
  %4 = icmp ugt i32 %3, 1073741823
  %5 = shl i32 %3, 1
  br i1 %4, label %6, label %7

6:                                                ; preds = %1
  tail call void (i32, ptr, ...) @zend_error_noreturn(i32 noundef 1, ptr noundef nonnull @.str, i32 noundef %5, i64 noundef 32, i64 noundef 32) #28
  unreachable

7:                                                ; preds = %1
  %8 = getelementptr inbounds i8, ptr %0, i64 4
  %9 = load i32, ptr %8, align 4
  %10 = and i32 %9, 128
  %.not = icmp eq i32 %10, 0
  %11 = getelementptr inbounds i8, ptr %0, i64 16
  %12 = load ptr, ptr %11, align 8
  %13 = getelementptr inbounds i8, ptr %0, i64 12
  %14 = load i32, ptr %13, align 4
  %15 = sub i32 0, %14
  %16 = zext i32 %15 to i64
  br i1 %.not, label %23, label %17

17:                                               ; preds = %7
  %.neg = mul nsw i64 %16, -4
  %18 = getelementptr inbounds i8, ptr %12, i64 %.neg
  %19 = zext nneg i32 %5 to i64
  %20 = shl nuw nsw i64 %19, 4
  %21 = or disjoint i64 %20, 8
  %22 = tail call ptr @__zend_realloc(ptr noundef %18, i64 noundef %21) #29
  br label %36

23:                                               ; preds = %7
  %24 = shl nuw nsw i64 %16, 2
  %25 = sub nsw i64 0, %24
  %26 = getelementptr inbounds i8, ptr %12, i64 %25
  %27 = zext nneg i32 %5 to i64
  %28 = shl nuw nsw i64 %27, 4
  %29 = or disjoint i64 %28, 8
  %30 = getelementptr inbounds i8, ptr %0, i64 24
  %31 = load i32, ptr %30, align 8
  %32 = zext i32 %31 to i64
  %33 = shl nuw nsw i64 %32, 4
  %34 = add nuw nsw i64 %33, %24
  %35 = tail call ptr @_erealloc2(ptr noundef %26, i64 noundef %29, i64 noundef %34) #29
  br label %36

36:                                               ; preds = %23, %17
  %37 = phi ptr [ %22, %17 ], [ %35, %23 ]
  %38 = getelementptr inbounds i8, ptr %0, i64 12
  %39 = load i32, ptr %38, align 4
  %40 = sub i32 0, %39
  %41 = zext i32 %40 to i64
  %42 = shl nuw nsw i64 %41, 2
  %43 = getelementptr inbounds i8, ptr %37, i64 %42
  %44 = getelementptr inbounds i8, ptr %0, i64 16
  store ptr %43, ptr %44, align 8
  store i32 %5, ptr %2, align 8
  ret void
}